target datalayout = "e-m:e-p270:32:32-p271:32:32-p272:64:64-i64:64-i128:128-f80:128-n8:16:32:64-S128"
target triple = "x86_64-unknown-linux-gnu"

%"class.proxygen::QPACKCodec" = type { %"class.proxygen::HeaderCodec", %"class.proxygen::QPACKEncoder", %"class.proxygen::QPACKDecoder", %"class.std::vector" }
%"class.proxygen::HeaderCodec" = type { ptr, %"struct.proxygen::HTTPHeaderSize", i32, i64, ptr }
%"struct.proxygen::HTTPHeaderSize" = type { i32, i32, i32 }
%"class.proxygen::QPACKEncoder" = type { %"class.proxygen::HPACKEncoderBase.base", [7 x i8], %"class.proxygen::QPACKContext.base", [4 x i8], %"class.proxygen::HPACKEncodeBuffer", %"class.std::unordered_map", %"struct.proxygen::QPACKEncoder::OutstandingBlock", i32, i32, i32, i32, i64, %"class.folly::IOBufQueue", i32, i32 }
%"class.proxygen::HPACKEncoderBase.base" = type <{ ptr, %"class.proxygen::HPACKEncodeBuffer", i8 }>
%"class.proxygen::QPACKContext.base" = type <{ %"class.proxygen::QPACKHeaderTable", i32, i32, i32 }>
%"class.proxygen::QPACKHeaderTable" = type { %"class.proxygen::HeaderTable", i32, i32, i32, i32, %"class.std::unique_ptr.7" }
%"class.proxygen::HeaderTable" = type { ptr, i32, i32, %"class.std::vector", i32, i32, i32, i8, %"class.folly::F14FastMap" }
%"class.folly::F14FastMap" = type { %"class.folly::f14::detail::F14VectorMapImpl" }
%"class.folly::f14::detail::F14VectorMapImpl" = type { %"class.folly::f14::detail::F14BasicMap" }
%"class.folly::f14::detail::F14BasicMap" = type { %"class.folly::f14::detail::F14Table" }
%"class.folly::f14::detail::F14Table" = type { %"class.folly::f14::detail::VectorContainerPolicy", ptr, %"struct.folly::f14::detail::SizeAndChunkShiftAndPackedBegin" }
%"class.folly::f14::detail::VectorContainerPolicy" = type { ptr }
%"struct.folly::f14::detail::SizeAndChunkShiftAndPackedBegin" = type { %"struct.folly::f14::detail::PackedSizeAndChunkShift" }
%"struct.folly::f14::detail::PackedSizeAndChunkShift" = type { i64 }
%"class.std::unique_ptr.7" = type { %"struct.std::__uniq_ptr_data.8" }
%"struct.std::__uniq_ptr_data.8" = type { %"class.std::__uniq_ptr_impl.9" }
%"class.std::__uniq_ptr_impl.9" = type { %"class.std::tuple.10" }
%"class.std::tuple.10" = type { %"struct.std::_Tuple_impl.11" }
%"struct.std::_Tuple_impl.11" = type { %"struct.std::_Head_base.14" }
%"struct.std::_Head_base.14" = type { ptr }
%"class.proxygen::HPACKEncodeBuffer" = type <{ %"class.folly::IOBufQueue", ptr, %"class.folly::io::QueueAppender", i32, i32, i32, [4 x i8] }>
%"class.folly::io::QueueAppender" = type { %"class.folly::IOBufQueue::WritableRangeCache", i64 }
%"class.folly::IOBufQueue::WritableRangeCache" = type { %"struct.folly::IOBufQueue::WritableRangeCacheData", ptr }
%"struct.folly::IOBufQueue::WritableRangeCacheData" = type <{ %"struct.std::pair", i8, [7 x i8] }>
%"struct.std::pair" = type { ptr, ptr }
%"class.std::unordered_map" = type { %"class.std::_Hashtable" }
%"class.std::_Hashtable" = type { ptr, i64, %"struct.std::__detail::_Hash_node_base", i64, %"struct.std::__detail::_Prime_rehash_policy", ptr }
%"struct.std::__detail::_Hash_node_base" = type { ptr }
%"struct.std::__detail::_Prime_rehash_policy" = type { float, i64 }
%"struct.proxygen::QPACKEncoder::OutstandingBlock" = type <{ %"class.std::set", i8, [7 x i8] }>
%"class.std::set" = type { %"class.std::_Rb_tree" }
%"class.std::_Rb_tree" = type { %"struct.std::_Rb_tree<unsigned int, unsigned int, std::_Identity<unsigned int>, std::less<unsigned int>>::_Rb_tree_impl" }
%"struct.std::_Rb_tree<unsigned int, unsigned int, std::_Identity<unsigned int>, std::less<unsigned int>>::_Rb_tree_impl" = type { %"struct.std::_Rb_tree_key_compare", %"struct.std::_Rb_tree_header" }
%"struct.std::_Rb_tree_key_compare" = type { %"struct.std::less" }
%"struct.std::less" = type { i8 }
%"struct.std::_Rb_tree_header" = type { %"struct.std::_Rb_tree_node_base", i64 }
%"struct.std::_Rb_tree_node_base" = type { i32, ptr, ptr, ptr }
%"class.folly::IOBufQueue" = type { %"struct.folly::IOBufQueue::Options", i64, %"class.std::unique_ptr", ptr, ptr, %"struct.folly::IOBufQueue::WritableRangeCacheData", ptr }
%"struct.folly::IOBufQueue::Options" = type { i8 }
%"class.std::unique_ptr" = type { %"struct.std::__uniq_ptr_data" }
%"struct.std::__uniq_ptr_data" = type { %"class.std::__uniq_ptr_impl" }
%"class.std::__uniq_ptr_impl" = type { %"class.std::tuple" }
%"class.std::tuple" = type { %"struct.std::_Tuple_impl" }
%"struct.std::_Tuple_impl" = type { %"struct.std::_Head_base.1" }
%"struct.std::_Head_base.1" = type { ptr }
%"class.proxygen::QPACKDecoder" = type { %"class.folly::DestructorCheck", %"class.proxygen::HPACKDecoderBase", %"class.proxygen::QPACKContext.base", i32, i32, i32, i32, i32, i64, %"class.std::multimap", %"struct.proxygen::QPACKDecoder::Partial", %"class.folly::IOBufQueue" }
%"class.folly::DestructorCheck" = type { ptr, %"class.folly::DestructorCheck::ForwardLink" }
%"class.folly::DestructorCheck::ForwardLink" = type { ptr }
%"class.proxygen::HPACKDecoderBase" = type { i8, i32, i64 }
%"class.std::multimap" = type { %"class.std::_Rb_tree.27" }
%"class.std::_Rb_tree.27" = type { %"struct.std::_Rb_tree<unsigned int, std::pair<const unsigned int, proxygen::QPACKDecoder::PendingBlock>, std::_Select1st<std::pair<const unsigned int, proxygen::QPACKDecoder::PendingBlock>>, std::less<unsigned int>>::_Rb_tree_impl" }
%"struct.std::_Rb_tree<unsigned int, std::pair<const unsigned int, proxygen::QPACKDecoder::PendingBlock>, std::_Select1st<std::pair<const unsigned int, proxygen::QPACKDecoder::PendingBlock>>, std::less<unsigned int>>::_Rb_tree_impl" = type { %"struct.std::_Rb_tree_key_compare", %"struct.std::_Rb_tree_header" }
%"struct.proxygen::QPACKDecoder::Partial" = type { i32, i32, %"class.proxygen::HPACKHeader" }
%"class.proxygen::HPACKHeader" = type { %"class.proxygen::HPACKHeaderName", %"class.folly::basic_fbstring" }
%"class.proxygen::HPACKHeaderName" = type { ptr }
%"class.folly::basic_fbstring" = type { %"class.folly::fbstring_core" }
%"class.folly::fbstring_core" = type { %union.anon }
%union.anon = type { %"struct.folly::fbstring_core<char>::MediumLarge" }
%"struct.folly::fbstring_core<char>::MediumLarge" = type { ptr, i64, i64 }
%"class.std::vector" = type { %"struct.std::_Vector_base" }
%"struct.std::_Vector_base" = type { %"struct.std::_Vector_base<proxygen::HPACKHeader, std::allocator<proxygen::HPACKHeader>>::_Vector_impl" }
%"struct.std::_Vector_base<proxygen::HPACKHeader, std::allocator<proxygen::HPACKHeader>>::_Vector_impl" = type { %"struct.std::_Vector_base<proxygen::HPACKHeader, std::allocator<proxygen::HPACKHeader>>::_Vector_impl_data" }
%"struct.std::_Vector_base<proxygen::HPACKHeader, std::allocator<proxygen::HPACKHeader>>::_Vector_impl_data" = type { ptr, ptr, ptr }

@_ZTVN8proxygen10QPACKCodecE = linkonce_odr unnamed_addr constant { [5 x ptr] } { [5 x ptr] [ptr null, ptr @_ZTIN8proxygen10QPACKCodecE, ptr @_ZN8proxygen10QPACKCodecD2Ev, ptr @_ZN8proxygen10QPACKCodecD0Ev, ptr @_ZN8proxygen10QPACKCodec18setMaxUncompressedEm] }, comdat, align 8
@_ZTVN8proxygen11HeaderCodecE = linkonce_odr unnamed_addr constant { [5 x ptr] } { [5 x ptr] [ptr null, ptr @_ZTIN8proxygen11HeaderCodecE, ptr @_ZN8proxygen11HeaderCodecD2Ev, ptr @_ZN8proxygen11HeaderCodecD0Ev, ptr @_ZN8proxygen11HeaderCodec18setMaxUncompressedEm] }, comdat, align 8

; Function Attrs: mustprogress nounwind uwtable
define linkonce_odr void @_ZNSt15__new_allocatorIN8proxygen11HPACKHeaderEEC2Ev(ptr noundef nonnull align 1 dereferenceable(1) %this) unnamed_addr #5 comdat align 2 {
entry:
  %this.addr = alloca ptr, align 8
  store ptr %this, ptr %this.addr, align 8
  ret void
}

; Function Attrs: mustprogress nounwind uwtable
define linkonce_odr void @_ZNSt12_Vector_baseIN8proxygen11HPACKHeaderESaIS1_EE17_Vector_impl_dataC2Ev(ptr noundef nonnull align 8 dereferenceable(24) %this) unnamed_addr #5 comdat align 2 {
entry:
  %this.addr = alloca ptr, align 8
  store ptr %this, ptr %this.addr, align 8
  %this1 = load ptr, ptr %this.addr, align 8
  %_M_start = getelementptr inbounds %"struct.std::_Vector_base<proxygen::HPACKHeader, std::allocator<proxygen::HPACKHeader>>::_Vector_impl_data", ptr %this1, i32 0, i32 0
  store ptr null, ptr %_M_start, align 8
  %_M_finish = getelementptr inbounds %"struct.std::_Vector_base<proxygen::HPACKHeader, std::allocator<proxygen::HPACKHeader>>::_Vector_impl_data", ptr %this1, i32 0, i32 1
  store ptr null, ptr %_M_finish, align 8
  %_M_end_of_storage = getelementptr inbounds %"struct.std::_Vector_base<proxygen::HPACKHeader, std::allocator<proxygen::HPACKHeader>>::_Vector_impl_data", ptr %this1, i32 0, i32 2
  store ptr null, ptr %_M_end_of_storage, align 8
  ret void
}

; Function Attrs: mustprogress nounwind uwtable
define linkonce_odr void @_ZNSaIN8proxygen11HPACKHeaderEEC2Ev(ptr noundef nonnull align 1 dereferenceable(1) %this) unnamed_addr #5 comdat align 2 {
entry:
  %this.addr = alloca ptr, align 8
  store ptr %this, ptr %this.addr, align 8
  %this1 = load ptr, ptr %this.addr, align 8
  call void @_ZNSt15__new_allocatorIN8proxygen11HPACKHeaderEEC2Ev(ptr noundef nonnull align 1 dereferenceable(1) %this1) #3
  ret void
}

; Function Attrs: mustprogress nounwind uwtable
define linkonce_odr void @_ZNSt12_Vector_baseIN8proxygen11HPACKHeaderESaIS1_EE12_Vector_implC2Ev(ptr noundef nonnull align 8 dereferenceable(24) %this) unnamed_addr #5 comdat align 2 {
entry:
  %this.addr = alloca ptr, align 8
  store ptr %this, ptr %this.addr, align 8
  %this1 = load ptr, ptr %this.addr, align 8
  call void @_ZNSaIN8proxygen11HPACKHeaderEEC2Ev(ptr noundef nonnull align 1 dereferenceable(1) %this1) #3
  call void @_ZNSt12_Vector_baseIN8proxygen11HPACKHeaderESaIS1_EE17_Vector_impl_dataC2Ev(ptr noundef nonnull align 8 dereferenceable(24) %this1) #3
  ret void
}

; Function Attrs: mustprogress nounwind uwtable
define linkonce_odr void @_ZNSt12_Vector_baseIN8proxygen11HPACKHeaderESaIS1_EEC2Ev(ptr noundef nonnull align 8 dereferenceable(24) %this) unnamed_addr #5 comdat align 2 {
entry:
  %this.addr = alloca ptr, align 8
  store ptr %this, ptr %this.addr, align 8
  %this1 = load ptr, ptr %this.addr, align 8
  %_M_impl = getelementptr inbounds %"struct.std::_Vector_base", ptr %this1, i32 0, i32 0
  call void @_ZNSt12_Vector_baseIN8proxygen11HPACKHeaderESaIS1_EE12_Vector_implC2Ev(ptr noundef nonnull align 8 dereferenceable(24) %_M_impl) #3
  ret void
}

; Function Attrs: mustprogress nounwind uwtable
define linkonce_odr void @_ZN8proxygen14HTTPHeaderSizeC2Ev(ptr noundef nonnull align 4 dereferenceable(12) %this) unnamed_addr #5 comdat align 2 {
entry:
  %this.addr = alloca ptr, align 8
  store ptr %this, ptr %this.addr, align 8
  %this1 = load ptr, ptr %this.addr, align 8
  %compressed = getelementptr inbounds %"struct.proxygen::HTTPHeaderSize", ptr %this1, i32 0, i32 0
  store i32 0, ptr %compressed, align 4
  %uncompressed = getelementptr inbounds %"struct.proxygen::HTTPHeaderSize", ptr %this1, i32 0, i32 1
  store i32 0, ptr %uncompressed, align 4
  %compressedBlock = getelementptr inbounds %"struct.proxygen::HTTPHeaderSize", ptr %this1, i32 0, i32 2
  store i32 0, ptr %compressedBlock, align 4
  ret void
}

; Function Attrs: mustprogress nounwind uwtable
define linkonce_odr void @_ZN8proxygen11HeaderCodecD2Ev(ptr noundef nonnull align 8 dereferenceable(40) %this) unnamed_addr #5 comdat align 2 {
entry:
  %this.addr = alloca ptr, align 8
  store ptr %this, ptr %this.addr, align 8
  ret void
}

; Function Attrs: mustprogress nounwind uwtable
define linkonce_odr void @_ZNSt6vectorIN8proxygen11HPACKHeaderESaIS1_EEC2Ev(ptr noundef nonnull align 8 dereferenceable(24) %this) unnamed_addr #5 comdat align 2 {
entry:
  %this.addr = alloca ptr, align 8
  store ptr %this, ptr %this.addr, align 8
  %this1 = load ptr, ptr %this.addr, align 8
  call void @_ZNSt12_Vector_baseIN8proxygen11HPACKHeaderESaIS1_EEC2Ev(ptr noundef nonnull align 8 dereferenceable(24) %this1) #3
  ret void
}

; Function Attrs: mustprogress nounwind uwtable
define linkonce_odr void @_ZN8proxygen11HeaderCodecC2Ev(ptr noundef nonnull align 8 dereferenceable(40) %this) unnamed_addr #5 comdat align 2 {
entry:
  %this.addr = alloca ptr, align 8
  store ptr %this, ptr %this.addr, align 8
  %this1 = load ptr, ptr %this.addr, align 8
  store ptr getelementptr inbounds ({ [5 x ptr] }, ptr @_ZTVN8proxygen11HeaderCodecE, i32 0, i32 0, i32 2), ptr %this1, align 8
  %encodedSize_ = getelementptr inbounds %"class.proxygen::HeaderCodec", ptr %this1, i32 0, i32 1
  call void @_ZN8proxygen14HTTPHeaderSizeC2Ev(ptr noundef nonnull align 4 dereferenceable(12) %encodedSize_) #3
  %encodeHeadroom_ = getelementptr inbounds %"class.proxygen::HeaderCodec", ptr %this1, i32 0, i32 2
  store i32 0, ptr %encodeHeadroom_, align 4
  %maxUncompressed_ = getelementptr inbounds %"class.proxygen::HeaderCodec", ptr %this1, i32 0, i32 3
  store i64 131072, ptr %maxUncompressed_, align 8
  %stats_ = getelementptr inbounds %"class.proxygen::HeaderCodec", ptr %this1, i32 0, i32 4
  store ptr null, ptr %stats_, align 8
  ret void
}

; Function Attrs: mustprogress uwtable
define void @_ZN8proxygen10QPACKCodecC2Ev(ptr noundef nonnull align 8 dereferenceable(1024) %this) unnamed_addr #4 align 2 personality ptr @__gxx_personality_v0 {
entry:
  %this.addr = alloca ptr, align 8
  %exn.slot = alloca ptr, align 8
  %ehselector.slot = alloca i32, align 4
  store ptr %this, ptr %this.addr, align 8
  %this1 = load ptr, ptr %this.addr, align 8
  call void @_ZN8proxygen11HeaderCodecC2Ev(ptr noundef nonnull align 8 dereferenceable(40) %this1)
  store ptr getelementptr inbounds ({ [5 x ptr] }, ptr @_ZTVN8proxygen10QPACKCodecE, i32 0, i32 0, i32 2), ptr %this1, align 8
  %encoder_ = getelementptr inbounds %"class.proxygen::QPACKCodec", ptr %this1, i32 0, i32 1
  invoke void @_ZN8proxygen12QPACKEncoderC1Ebj(ptr noundef nonnull align 8 dereferenceable(624) %encoder_, i1 noundef zeroext true, i32 noundef 0)
          to label %invoke.cont unwind label %lpad

invoke.cont:                                      ; preds = %entry
  %decoder_ = getelementptr inbounds %"class.proxygen::QPACKCodec", ptr %this1, i32 0, i32 2
  %maxUncompressed_ = getelementptr inbounds %"class.proxygen::HeaderCodec", ptr %this1, i32 0, i32 3
  %0 = load i64, ptr %maxUncompressed_, align 8
  %conv = trunc i64 %0 to i32
  invoke void @_ZN8proxygen12QPACKDecoderC2Ejj(ptr noundef nonnull align 8 dereferenceable(336) %decoder_, i32 noundef 0, i32 noundef %conv)
          to label %invoke.cont3 unwind label %lpad2

invoke.cont3:                                     ; preds = %invoke.cont
  %decodedHeaders_ = getelementptr inbounds %"class.proxygen::QPACKCodec", ptr %this1, i32 0, i32 3
  call void @_ZNSt6vectorIN8proxygen11HPACKHeaderESaIS1_EEC2Ev(ptr noundef nonnull align 8 dereferenceable(24) %decodedHeaders_) #3
  ret void

lpad:                                             ; preds = %entry
  %1 = landingpad { ptr, i32 }
          cleanup
  %2 = extractvalue { ptr, i32 } %1, 0
  store ptr %2, ptr %exn.slot, align 8
  %3 = extractvalue { ptr, i32 } %1, 1
  store i32 %3, ptr %ehselector.slot, align 4
  br label %ehcleanup

lpad2:                                            ; preds = %invoke.cont
  %4 = landingpad { ptr, i32 }
          cleanup
  %5 = extractvalue { ptr, i32 } %4, 0
  store ptr %5, ptr %exn.slot, align 8
  %6 = extractvalue { ptr, i32 } %4, 1
  store i32 %6, ptr %ehselector.slot, align 4
  call void @_ZN8proxygen12QPACKEncoderD2Ev(ptr noundef nonnull align 8 dereferenceable(624) %encoder_) #3
  br label %ehcleanup

ehcleanup:                                        ; preds = %lpad2, %lpad
  call void @_ZN8proxygen11HeaderCodecD2Ev(ptr noundef nonnull align 8 dereferenceable(40) %this1) #3
  br label %eh.resume

eh.resume:                                        ; preds = %ehcleanup
  %exn = load ptr, ptr %exn.slot, align 8
  %sel = load i32, ptr %ehselector.slot, align 4
  %lpad.val = insertvalue { ptr, i32 } poison, ptr %exn, 0
  %lpad.val4 = insertvalue { ptr, i32 } %lpad.val, i32 %sel, 1
  resume { ptr, i32 } %lpad.val4
}