; Function Attrs: mustprogress uwtable
define void @_ZN8proxygen10QPACKCodecC2Ev(ptr noundef nonnull align 8 dereferenceable(1024) %this) unnamed_addr #3 align 2 personality ptr @__gxx_personality_v0 {
entry:
  %encodedSize_.i = getelementptr inbounds i8, ptr %this, i64 8
  %maxUncompressed_.i = getelementptr inbounds i8, ptr %this, i64 24
  tail call void @llvm.memset.p0.i64(ptr noundef nonnull align 8 dereferenceable(16) %encodedSize_.i, i8 0, i64 16, i1 false)
  store i64 131072, ptr %maxUncompressed_.i, align 8
  %stats_.i = getelementptr inbounds i8, ptr %this, i64 32
  store ptr null, ptr %stats_.i, align 8
  store ptr getelementptr inbounds ({ [5 x ptr] }, ptr @_ZTVN8proxygen10QPACKCodecE, i64 0, i32 0, i64 2), ptr %this, align 8
  %encoder_ = getelementptr inbounds i8, ptr %this, i64 40
  tail call void @_ZN8proxygen12QPACKEncoderC1Ebj(ptr noundef nonnull align 8 dereferenceable(624) %encoder_, i1 noundef zeroext true, i32 noundef 0)
  %decoder_ = getelementptr inbounds i8, ptr %this, i64 664
  %0 = load i64, ptr %maxUncompressed_.i, align 8
  %conv = trunc i64 %0 to i32
  invoke void @_ZN8proxygen12QPACKDecoderC2Ejj(ptr noundef nonnull align 8 dereferenceable(336) %decoder_, i32 noundef 0, i32 noundef %conv)
          to label %invoke.cont3 unwind label %lpad2

invoke.cont3:                                     ; preds = %entry
  %decodedHeaders_ = getelementptr inbounds i8, ptr %this, i64 1000
  tail call void @llvm.memset.p0.i64(ptr noundef nonnull align 8 dereferenceable(24) %decodedHeaders_, i8 0, i64 24, i1 false)
  ret void

lpad2:                                            ; preds = %entry
  %1 = landingpad { ptr, i32 }
          cleanup
  tail call void @_ZN8proxygen12QPACKEncoderD2Ev(ptr noundef nonnull align 8 dereferenceable(624) %encoder_) #24
  resume { ptr, i32 } %1
}